target datalayout = "e-m:e-p270:32:32-p271:32:32-p272:64:64-i64:64-i128:128-f80:128-n8:16:32:64-S128"
target triple = "x86_64-pc-linux-gnu"

%struct.b2Vec2 = type { float, float }
%struct.b2ShapeId = type { i32, i16, i16 }
%struct.ShapeUserData = type { i32, i8 }
%struct.RayCastContext = type { [3 x %struct.b2Vec2], [3 x %struct.b2Vec2], [3 x float], i32 }

; Function Attrs: mustprogress uwtable
define internal noundef float @_ZL22RayCastClosestCallback9b2ShapeId6b2Vec2S0_fPv(i64 %0, <2 x float> %1, <2 x float> %2, float noundef %3, ptr noundef %4) #9 {
  %6 = alloca float, align 4
  %7 = alloca %struct.b2ShapeId, align 4
  %8 = alloca %struct.b2Vec2, align 4
  %9 = alloca %struct.b2Vec2, align 4
  %10 = alloca float, align 4
  %11 = alloca ptr, align 8
  %12 = alloca ptr, align 8
  %13 = alloca ptr, align 8
  %14 = alloca %struct.b2ShapeId, align 4
  %15 = alloca i32, align 4
  store i64 %0, ptr %7, align 4
  store <2 x float> %1, ptr %8, align 4
  store <2 x float> %2, ptr %9, align 4
  store float %3, ptr %10, align 4, !tbaa !25
  store ptr %4, ptr %11, align 8, !tbaa !178
  call void @llvm.lifetime.start.p0(i64 8, ptr %12) #21
  %16 = load ptr, ptr %11, align 8, !tbaa !178
  store ptr %16, ptr %12, align 8, !tbaa !249
  call void @llvm.lifetime.start.p0(i64 8, ptr %13) #21
  call void @llvm.memcpy.p0.p0.i64(ptr align 4 %14, ptr align 4 %7, i64 8, i1 false), !tbaa.struct !225
  %17 = load i64, ptr %14, align 4
  %18 = call ptr @b2Shape_GetUserData(i64 %17)
  store ptr %18, ptr %13, align 8, !tbaa !251
  %19 = load ptr, ptr %13, align 8, !tbaa !251
  %20 = icmp ne ptr %19, null
  br i1 %20, label %21, label %27

21:                                               ; preds = %5
  %22 = load ptr, ptr %13, align 8, !tbaa !251
  %23 = getelementptr inbounds nuw %struct.ShapeUserData, ptr %22, i32 0, i32 1
  %24 = load i8, ptr %23, align 4, !tbaa !223, !range !19, !noundef !20
  %25 = trunc i8 %24 to i1
  br i1 %25, label %26, label %27

26:                                               ; preds = %21
  store float -1.000000e+00, ptr %6, align 4
  store i32 1, ptr %15, align 4
  br label %41

27:                                               ; preds = %21, %5
  %28 = load ptr, ptr %12, align 8, !tbaa !249
  %29 = getelementptr inbounds nuw %struct.RayCastContext, ptr %28, i32 0, i32 0
  %30 = getelementptr inbounds [3 x %struct.b2Vec2], ptr %29, i64 0, i64 0
  call void @llvm.memcpy.p0.p0.i64(ptr align 4 %30, ptr align 4 %8, i64 8, i1 false), !tbaa.struct !24
  %31 = load ptr, ptr %12, align 8, !tbaa !249
  %32 = getelementptr inbounds nuw %struct.RayCastContext, ptr %31, i32 0, i32 1
  %33 = getelementptr inbounds [3 x %struct.b2Vec2], ptr %32, i64 0, i64 0
  call void @llvm.memcpy.p0.p0.i64(ptr align 4 %33, ptr align 4 %9, i64 8, i1 false), !tbaa.struct !24
  %34 = load float, ptr %10, align 4, !tbaa !25
  %35 = load ptr, ptr %12, align 8, !tbaa !249
  %36 = getelementptr inbounds nuw %struct.RayCastContext, ptr %35, i32 0, i32 2
  %37 = getelementptr inbounds [3 x float], ptr %36, i64 0, i64 0
  store float %34, ptr %37, align 4, !tbaa !25
  %38 = load ptr, ptr %12, align 8, !tbaa !249
  %39 = getelementptr inbounds nuw %struct.RayCastContext, ptr %38, i32 0, i32 3
  store i32 1, ptr %39, align 4, !tbaa !244
  %40 = load float, ptr %10, align 4, !tbaa !25
  store float %40, ptr %6, align 4
  store i32 1, ptr %15, align 4
  br label %41

41:                                               ; preds = %27, %26
  call void @llvm.lifetime.end.p0(i64 8, ptr %13) #21
  call void @llvm.lifetime.end.p0(i64 8, ptr %12) #21
  %42 = load float, ptr %6, align 4
  ret float %42
}