; Function Attrs: mustprogress uwtable
define internal noundef float @_ZL22RayCastClosestCallback9b2ShapeId6b2Vec2S0_fPv(i64 %0, <2 x float> %1, <2 x float> %2, float noundef %3, ptr noundef writeonly captures(none) %4) #2 {
  %6 = tail call ptr @b2Shape_GetUserData(i64 %0)
  %.not = icmp eq ptr %6, null
  br i1 %.not, label %11, label %7

7:                                                ; preds = %5
  %8 = getelementptr inbounds nuw i8, ptr %6, i64 4
  %9 = load i8, ptr %8, align 4, !tbaa !201, !range !13, !noundef !14
  %10 = trunc nuw i8 %9 to i1
  br i1 %10, label %15, label %11

11:                                               ; preds = %7, %5
  store <2 x float> %1, ptr %4, align 4
  %12 = getelementptr inbounds nuw i8, ptr %4, i64 24
  store <2 x float> %2, ptr %12, align 4
  %13 = getelementptr inbounds nuw i8, ptr %4, i64 48
  store float %3, ptr %13, align 4, !tbaa !15
  %14 = getelementptr inbounds nuw i8, ptr %4, i64 60
  store i32 1, ptr %14, align 4, !tbaa !219
  br label %15

15:                                               ; preds = %7, %11
  %.0 = phi float [ %3, %11 ], [ -1.000000e+00, %7 ]
  ret float %.0
}